target datalayout = "e-m:e-p270:32:32-p271:32:32-p272:64:64-i64:64-i128:128-f80:128-n8:16:32:64-S128"
target triple = "x86_64-pc-linux-gnu"

; Function Attrs: mustprogress uwtable
define noundef i32 @_ZNK10open_spiel5State7GetTypeEv(ptr noundef nonnull align 8 dereferenceable(60) %0) #4 align 2 {
  %2 = alloca i32, align 4
  %3 = alloca ptr, align 8
  store ptr %0, ptr %3, align 8
  %4 = load ptr, ptr %3, align 8
  %5 = load ptr, ptr %4, align 8
  %6 = getelementptr inbounds ptr, ptr %5, i64 16
  %7 = load ptr, ptr %6, align 8
  %8 = call noundef zeroext i1 %7(ptr noundef nonnull align 8 dereferenceable(60) %4)
  br i1 %8, label %9, label %10

9:                                                ; preds = %1
  store i32 1, ptr %2, align 4
  br label %24

10:                                               ; preds = %1
  %11 = load ptr, ptr %4, align 8
  %12 = getelementptr inbounds ptr, ptr %11, i64 11
  %13 = load ptr, ptr %12, align 8
  %14 = call noundef zeroext i1 %13(ptr noundef nonnull align 8 dereferenceable(60) %4)
  br i1 %14, label %15, label %16

15:                                               ; preds = %10
  store i32 0, ptr %2, align 4
  br label %24

16:                                               ; preds = %10
  %17 = load ptr, ptr %4, align 8
  %18 = getelementptr inbounds ptr, ptr %17, i64 2
  %19 = load ptr, ptr %18, align 8
  %20 = call noundef i32 %19(ptr noundef nonnull align 8 dereferenceable(60) %4)
  %21 = icmp eq i32 %20, -5
  br i1 %21, label %22, label %23

22:                                               ; preds = %16
  store i32 3, ptr %2, align 4
  br label %24

23:                                               ; preds = %16
  store i32 2, ptr %2, align 4
  br label %24

24:                                               ; preds = %23, %22, %15, %9
  %25 = load i32, ptr %2, align 4
  ret i32 %25
}