; Function Attrs: mustprogress uwtable
define noundef range(i32 0, 4) i32 @_ZNK10open_spiel5State7GetTypeEv(ptr noundef nonnull align 8 dereferenceable(60) %0) local_unnamed_addr #3 align 2 {
  %2 = load ptr, ptr %0, align 8
  %3 = getelementptr inbounds nuw i8, ptr %2, i64 128
  %4 = load ptr, ptr %3, align 8
  %5 = tail call noundef zeroext i1 %4(ptr noundef nonnull align 8 dereferenceable(60) %0)
  br i1 %5, label %17, label %6

6:                                                ; preds = %1
  %7 = load ptr, ptr %0, align 8
  %8 = getelementptr inbounds nuw i8, ptr %7, i64 88
  %9 = load ptr, ptr %8, align 8
  %10 = tail call noundef zeroext i1 %9(ptr noundef nonnull align 8 dereferenceable(60) %0)
  br i1 %10, label %17, label %11

11:                                               ; preds = %6
  %12 = load ptr, ptr %0, align 8
  %13 = getelementptr inbounds nuw i8, ptr %12, i64 16
  %14 = load ptr, ptr %13, align 8
  %15 = tail call noundef i32 %14(ptr noundef nonnull align 8 dereferenceable(60) %0)
  %16 = icmp eq i32 %15, -5
  %. = select i1 %16, i32 3, i32 2
  br label %17

17:                                               ; preds = %11, %6, %1
  %.0 = phi i32 [ 1, %1 ], [ 0, %6 ], [ %., %11 ]
  ret i32 %.0
}